; Function Attrs: mustprogress uwtable
define noundef zeroext i1 @_ZNK6casadi16GetNonzerosSlice8is_equalEPKNS_6MXNodeEx(ptr noundef nonnull align 8 dereferenceable(88) %0, ptr noundef %1, i64 noundef %2) unnamed_addr #3 align 2 {
  %4 = tail call noundef zeroext i1 @_ZNK6casadi6MXNode13sameOpAndDepsEPKS0_x(ptr noundef nonnull align 8 dereferenceable(64) %0, ptr noundef %1, i64 noundef %2)
  %5 = icmp ne ptr %1, null
  %or.cond.not = and i1 %5, %4
  br i1 %or.cond.not, label %6, label %.thread

6:                                                ; preds = %3
  %7 = tail call ptr @__dynamic_cast(ptr nonnull %1, ptr nonnull @_ZTIN6casadi6MXNodeE, ptr nonnull @_ZTIN6casadi16GetNonzerosSliceE, i64 0) #22
  %8 = icmp eq ptr %7, null
  br i1 %8, label %.thread, label %9

9:                                                ; preds = %6
  %10 = getelementptr inbounds i8, ptr %0, i64 56
  %11 = getelementptr inbounds i8, ptr %1, i64 56
  %12 = tail call noundef zeroext i1 @_ZNK6casadi8Sparsity8is_equalERKS0_(ptr noundef nonnull align 8 dereferenceable(8) %10, ptr noundef nonnull align 8 dereferenceable(8) %11)
  br i1 %12, label %13, label %.thread

13:                                               ; preds = %9
  %14 = getelementptr inbounds i8, ptr %0, i64 64
  %15 = getelementptr inbounds i8, ptr %7, i64 64
  %16 = load i64, ptr %14, align 8
  %17 = load i64, ptr %15, align 8
  %18 = icmp eq i64 %16, %17
  br i1 %18, label %19, label %_ZNK6casadi5SliceneERKS0_.exit.thread

19:                                               ; preds = %13
  %20 = getelementptr inbounds i8, ptr %0, i64 72
  %21 = load i64, ptr %20, align 8
  %22 = getelementptr inbounds i8, ptr %7, i64 72
  %23 = load i64, ptr %22, align 8
  %24 = icmp eq i64 %21, %23
  br i1 %24, label %_ZNK6casadi5SliceneERKS0_.exit, label %_ZNK6casadi5SliceneERKS0_.exit.thread

_ZNK6casadi5SliceneERKS0_.exit:                   ; preds = %19
  %25 = getelementptr inbounds i8, ptr %0, i64 80
  %26 = load i64, ptr %25, align 8
  %27 = getelementptr inbounds i8, ptr %7, i64 80
  %28 = load i64, ptr %27, align 8
  %29 = icmp ne i64 %26, %28
  %cond.fr = freeze i1 %29
  br i1 %cond.fr, label %_ZNK6casadi5SliceneERKS0_.exit.thread, label %.thread

_ZNK6casadi5SliceneERKS0_.exit.thread:            ; preds = %13, %19, %_ZNK6casadi5SliceneERKS0_.exit
  br label %.thread

.thread:                                          ; preds = %_ZNK6casadi5SliceneERKS0_.exit.thread, %_ZNK6casadi5SliceneERKS0_.exit, %9, %6, %3
  %.0 = phi i1 [ false, %3 ], [ false, %6 ], [ false, %9 ], [ false, %_ZNK6casadi5SliceneERKS0_.exit.thread ], [ true, %_ZNK6casadi5SliceneERKS0_.exit ]
  ret i1 %.0
}